; Function Attrs: inlinehint mustprogress nounwind uwtable
define internal fastcc noundef nonnull align 8 dereferenceable(8) ptr @_ZN2cv12_GLOBAL__N_18GSafePtrI7_GstPadE6attachEPS2_(ptr noundef nonnull returned align 8 dereferenceable(8) %0, ptr noundef %1) unnamed_addr #5 align 2 personality ptr @__gxx_personality_v0 {
  %3 = load ptr, ptr %0, align 8, !tbaa !478
  %.not.i = icmp eq ptr %3, null
  br i1 %.not.i, label %_ZN2cv12_GLOBAL__N_18GSafePtrI7_GstPadE7releaseEv.exit, label %4

4:                                                ; preds = %2
  %5 = invoke ptr @g_type_check_instance_cast(ptr noundef nonnull %3, i64 noundef 80)
          to label %.noexc.i unwind label %6

.noexc.i:                                         ; preds = %4
  invoke void @gst_object_unref(ptr noundef %5)
          to label %_ZN2cv12_GLOBAL__N_18GSafePtrI7_GstPadE7releaseEv.exit unwind label %6

6:                                                ; preds = %.noexc.i, %4
  %7 = landingpad { ptr, i32 }
          catch ptr null
  %8 = extractvalue { ptr, i32 } %7, 0
  tail call void @__clang_call_terminate(ptr %8) #32
  unreachable

_ZN2cv12_GLOBAL__N_18GSafePtrI7_GstPadE7releaseEv.exit: ; preds = %.noexc.i, %2
  store ptr %1, ptr %0, align 8, !tbaa !478
  ret ptr %0
}